Certificate:
    Data:
        Version: 3 (0x2)
        Serial Number: 126 (0x7e)
        Signature Algorithm: sha1WithRSAEncryption
        Issuer: C=DE, ST=Eastern Germany, L=Berlin, O=Foerderverein Freie Netzwerke e.V., OU=Freifunk, CN=77.87.48.10/emailAddress=sven-ola@gmx.de
        Validity
            Not Before: Feb 19 05:35:11 2014 GMT
            Not After : Feb 17 05:35:11 2024 GMT
        Subject: C=DE, ST=Eastern Germany, L=Berlin, O=Foerderverein Freie Netzwerke e.V., CN=freifunk_steffen-foerster-ff-chemnitz2/emailAddress=nemesis@chemnitz.freifunk.net
        Subject Public Key Info:
            Public Key Algorithm: rsaEncryption
            RSA Public Key: (1024 bit)
                Modulus (1024 bit):
                    00:cf:fd:80:63:72:df:ed:21:16:ad:38:c4:bb:8e:
                    12:81:fd:a7:be:7d:69:f9:03:b8:ff:17:ec:c6:01:
                    d6:2c:22:40:bb:40:ee:46:d4:ad:e6:22:97:02:a9:
                    15:8d:89:d1:da:8a:e7:8f:12:d2:24:42:80:0f:d8:
                    19:90:d3:4b:62:5f:ef:86:c7:4b:f7:52:24:8e:43:
                    f2:f1:81:f1:0e:c5:5d:ef:a1:f7:d6:76:c4:be:03:
                    d8:f5:17:5b:a1:20:84:d2:2c:8a:3f:4a:35:16:7e:
                    77:bd:5a:5e:f5:71:f2:4f:15:bc:61:c3:73:8c:7f:
                    77:71:3e:ee:b7:7c:6f:66:81
                Exponent: 65537 (0x10001)
        X509v3 extensions:
            X509v3 Basic Constraints: 
                CA:FALSE
            Netscape Comment: 
                Easy-RSA Generated Certificate
            X509v3 Subject Key Identifier: 
                4C:87:33:CE:A0:E8:13:9C:7E:D8:68:E8:55:E3:82:D5:53:5F:06:21
            X509v3 Authority Key Identifier: 
                keyid:02:42:CC:B5:53:53:5B:0E:58:6F:DE:B2:AC:11:63:C6:F6:E0:A7:0D
                DirName:/C=DE/ST=Eastern Germany/L=Berlin/O=Foerderverein Freie Netzwerke e.V./OU=Freifunk/CN=77.87.48.10/emailAddress=sven-ola@gmx.de
                serial:C4:EF:35:1C:C0:2E:CE:F2

            X509v3 Extended Key Usage: 
                TLS Web Client Authentication
            X509v3 Key Usage: 
                Digital Signature
    Signature Algorithm: sha1WithRSAEncryption
        45:7d:30:31:f6:49:cf:ec:b5:07:63:c8:da:65:ad:41:e3:aa:
        c0:9e:ef:bd:d0:2c:a1:4f:b8:d8:8e:c6:11:89:d4:e6:c5:4d:
        c5:5f:d3:99:93:73:eb:0d:43:2f:9e:21:3e:6b:73:94:9d:28:
        e3:12:a0:4f:6d:09:7d:be:90:f0:30:0e:9f:e0:a7:6d:7f:b1:
        07:86:00:51:6d:46:ed:9b:61:fe:4f:43:d6:15:a4:69:ad:d7:
        6f:9f:9a:86:af:ed:69:2b:1b:d7:d2:68:62:40:5c:21:b6:52:
        d5:15:96:aa:d5:b6:a1:1d:75:46:cf:68:19:e3:9a:88:82:2c:
        d1:09
-----BEGIN CERTIFICATE-----
MIIEUTCCA7qgAwIBAgIBfjANBgkqhkiG9w0BAQUFADCBrjELMAkGA1UEBhMCREUx
GDAWBgNVBAgTD0Vhc3Rlcm4gR2VybWFueTEPMA0GA1UEBxMGQmVybGluMSswKQYD
VQQKEyJGb2VyZGVydmVyZWluIEZyZWllIE5ldHp3ZXJrZSBlLlYuMREwDwYDVQQL
EwhGcmVpZnVuazEUMBIGA1UEAxMLNzcuODcuNDguMTAxHjAcBgkqhkiG9w0BCQEW
D3N2ZW4tb2xhQGdteC5kZTAeFw0xNDAyMTkwNTM1MTFaFw0yNDAyMTcwNTM1MTFa
MIHEMQswCQYDVQQGEwJERTEYMBYGA1UECBMPRWFzdGVybiBHZXJtYW55MQ8wDQYD
VQQHEwZCZXJsaW4xKzApBgNVBAoTIkZvZXJkZXJ2ZXJlaW4gRnJlaWUgTmV0endl
cmtlIGUuVi4xLzAtBgNVBAMUJmZyZWlmdW5rX3N0ZWZmZW4tZm9lcnN0ZXItZmYt
Y2hlbW5pdHoyMSwwKgYJKoZIhvcNAQkBFh1uZW1lc2lzQGNoZW1uaXR6LmZyZWlm
dW5rLm5ldDCBnzANBgkqhkiG9w0BAQEFAAOBjQAwgYkCgYEAz/2AY3Lf7SEWrTjE
u44Sgf2nvn1p+QO4/xfsxgHWLCJAu0DuRtSt5iKXAqkVjYnR2ornjxLSJEKAD9gZ
kNNLYl/vhsdL91IkjkPy8YHxDsVd76H31nbEvgPY9RdboSCE0iyKP0o1Fn53vVpe
9XHyTxW8YcNzjH93cT7ut3xvZoECAwEAAaOCAWUwggFhMAkGA1UdEwQCMAAwLQYJ
YIZIAYb4QgENBCAWHkVhc3ktUlNBIEdlbmVyYXRlZCBDZXJ0aWZpY2F0ZTAdBgNV
HQ4EFgQUTIczzqDoE5x+2GjoVeOC1VNfBiEwgeMGA1UdIwSB2zCB2IAUAkLMtVNT
Ww5Yb96yrBFjxvbgpw2hgbSkgbEwga4xCzAJBgNVBAYTAkRFMRgwFgYDVQQIEw9F
YXN0ZXJuIEdlcm1hbnkxDzANBgNVBAcTBkJlcmxpbjErMCkGA1UEChMiRm9lcmRl
cnZlcmVpbiBGcmVpZSBOZXR6d2Vya2UgZS5WLjERMA8GA1UECxMIRnJlaWZ1bmsx
FDASBgNVBAMTCzc3Ljg3LjQ4LjEwMR4wHAYJKoZIhvcNAQkBFg9zdmVuLW9sYUBn
bXguZGWCCQDE7zUcwC7O8jATBgNVHSUEDDAKBggrBgEFBQcDAjALBgNVHQ8EBAMC
B4AwDQYJKoZIhvcNAQEFBQADgYEARX0wMfZJz+y1B2PI2mWtQeOqwJ7vvdAsoU+4
2I7GEYnU5sVNxV/TmZNz6w1DL54hPmtzlJ0o4xKgT20Jfb6Q8DAOn+CnbX+xB4YA
UW1G7Zth/k9D1hWkaa3Xb5+ahq/taSsb19JoYkBcIbZS1RWWqtW2oR11Rs9oGeOa
iIIs0Qk=
-----END CERTIFICATE-----
