Certificate:
    Data:
        Version: 3 (0x2)
        Serial Number: 45 (0x2d)
        Signature Algorithm: sha1WithRSAEncryption
        Issuer: C=DE, ST=Eastern Germany, L=Berlin, O=Foerderverein Freie Netzwerke e.V., OU=Freifunk, CN=77.87.48.10/emailAddress=sven-ola@gmx.de
        Validity
            Not Before: Jul 30 08:50:55 2013 GMT
            Not After : Jul 28 08:50:55 2023 GMT
        Subject: C=DE, ST=Eastern Germany, L=Berlin, O=Foerderverein Freie Netzwerke e.V., CN=freifunk_steffen-foerster-ff-chemnitz/emailAddress=nemesis@chemnitz.freifunk.net
        Subject Public Key Info:
            Public Key Algorithm: rsaEncryption
            RSA Public Key: (1024 bit)
                Modulus (1024 bit):
                    00:b4:78:46:26:90:e5:fd:d0:dc:47:2e:e6:ea:23:
                    e3:d9:03:50:e7:0d:34:e6:c1:a2:5f:1c:11:99:2c:
                    b4:21:e9:44:ce:3f:61:58:e7:e9:97:e5:f5:56:82:
                    94:2c:05:c3:e8:39:bc:bd:4f:b7:46:f1:5e:dd:84:
                    67:10:26:f8:78:29:d8:0b:78:f8:3e:46:cf:28:45:
                    b1:2e:88:b8:3e:4e:5e:ef:ef:f6:d5:54:37:46:e5:
                    b7:80:3a:62:a1:cb:b9:5c:cd:bb:1c:0b:e7:17:90:
                    29:af:5c:74:42:d0:28:ec:a3:03:3a:a8:35:be:dc:
                    a7:18:dc:10:67:5a:df:80:6f
                Exponent: 65537 (0x10001)
        X509v3 extensions:
            X509v3 Basic Constraints: 
                CA:FALSE
            Netscape Comment: 
                Easy-RSA Generated Certificate
            X509v3 Subject Key Identifier: 
                69:50:6F:F7:02:4B:2A:BE:9E:6A:2A:88:73:CF:21:01:03:04:92:42
            X509v3 Authority Key Identifier: 
                keyid:02:42:CC:B5:53:53:5B:0E:58:6F:DE:B2:AC:11:63:C6:F6:E0:A7:0D
                DirName:/C=DE/ST=Eastern Germany/L=Berlin/O=Foerderverein Freie Netzwerke e.V./OU=Freifunk/CN=77.87.48.10/emailAddress=sven-ola@gmx.de
                serial:C4:EF:35:1C:C0:2E:CE:F2

            X509v3 Extended Key Usage: 
                TLS Web Client Authentication
            X509v3 Key Usage: 
                Digital Signature
    Signature Algorithm: sha1WithRSAEncryption
        68:69:b4:03:f7:09:a2:c4:c9:60:95:b3:a9:6e:89:53:3a:31:
        70:42:63:76:80:b7:05:1f:29:57:74:da:d7:6e:c1:98:f9:e9:
        63:f3:94:f5:8d:f4:be:bf:0e:ee:60:4a:83:0e:f0:d6:f1:7b:
        ef:9d:30:7d:d2:19:6f:0d:30:3a:cc:c4:73:f5:5f:9b:b8:13:
        93:34:59:59:c1:10:39:36:ff:73:60:8c:24:92:7b:4b:7b:ca:
        97:fa:68:5c:22:a9:ce:72:03:e3:f1:62:1f:83:52:88:58:8d:
        50:85:22:41:fe:c0:48:7d:4d:1a:ef:b5:76:15:8e:c0:c6:b3:
        73:58
-----BEGIN CERTIFICATE-----
MIIEUDCCA7mgAwIBAgIBLTANBgkqhkiG9w0BAQUFADCBrjELMAkGA1UEBhMCREUx
GDAWBgNVBAgTD0Vhc3Rlcm4gR2VybWFueTEPMA0GA1UEBxMGQmVybGluMSswKQYD
VQQKEyJGb2VyZGVydmVyZWluIEZyZWllIE5ldHp3ZXJrZSBlLlYuMREwDwYDVQQL
EwhGcmVpZnVuazEUMBIGA1UEAxMLNzcuODcuNDguMTAxHjAcBgkqhkiG9w0BCQEW
D3N2ZW4tb2xhQGdteC5kZTAeFw0xMzA3MzAwODUwNTVaFw0yMzA3MjgwODUwNTVa
MIHDMQswCQYDVQQGEwJERTEYMBYGA1UECBMPRWFzdGVybiBHZXJtYW55MQ8wDQYD
VQQHEwZCZXJsaW4xKzApBgNVBAoTIkZvZXJkZXJ2ZXJlaW4gRnJlaWUgTmV0endl
cmtlIGUuVi4xLjAsBgNVBAMUJWZyZWlmdW5rX3N0ZWZmZW4tZm9lcnN0ZXItZmYt
Y2hlbW5pdHoxLDAqBgkqhkiG9w0BCQEWHW5lbWVzaXNAY2hlbW5pdHouZnJlaWZ1
bmsubmV0MIGfMA0GCSqGSIb3DQEBAQUAA4GNADCBiQKBgQC0eEYmkOX90NxHLubq
I+PZA1DnDTTmwaJfHBGZLLQh6UTOP2FY5+mX5fVWgpQsBcPoOby9T7dG8V7dhGcQ
Jvh4KdgLePg+Rs8oRbEuiLg+Tl7v7/bVVDdG5beAOmKhy7lczbscC+cXkCmvXHRC
0CjsowM6qDW+3KcY3BBnWt+AbwIDAQABo4IBZTCCAWEwCQYDVR0TBAIwADAtBglg
hkgBhvhCAQ0EIBYeRWFzeS1SU0EgR2VuZXJhdGVkIENlcnRpZmljYXRlMB0GA1Ud
DgQWBBRpUG/3Aksqvp5qKohzzyEBAwSSQjCB4wYDVR0jBIHbMIHYgBQCQsy1U1Nb
Dlhv3rKsEWPG9uCnDaGBtKSBsTCBrjELMAkGA1UEBhMCREUxGDAWBgNVBAgTD0Vh
c3Rlcm4gR2VybWFueTEPMA0GA1UEBxMGQmVybGluMSswKQYDVQQKEyJGb2VyZGVy
dmVyZWluIEZyZWllIE5ldHp3ZXJrZSBlLlYuMREwDwYDVQQLEwhGcmVpZnVuazEU
MBIGA1UEAxMLNzcuODcuNDguMTAxHjAcBgkqhkiG9w0BCQEWD3N2ZW4tb2xhQGdt
eC5kZYIJAMTvNRzALs7yMBMGA1UdJQQMMAoGCCsGAQUFBwMCMAsGA1UdDwQEAwIH
gDANBgkqhkiG9w0BAQUFAAOBgQBoabQD9wmixMlglbOpbolTOjFwQmN2gLcFHylX
dNrXbsGY+elj85T1jfS+vw7uYEqDDvDW8XvvnTB90hlvDTA6zMRz9V+buBOTNFlZ
wRA5Nv9zYIwkkntLe8qX+mhcIqnOcgPj8WIfg1KIWI1QhSJB/sBIfU0a77V2FY7A
xrNzWA==
-----END CERTIFICATE-----
